target datalayout = "e-m:e-p270:32:32-p271:32:32-p272:64:64-i64:64-i128:128-f80:128-n8:16:32:64-S128"
target triple = "x86_64-pc-linux-gnu"

%struct.slurm_conf_t = type { i64, ptr, i16, ptr, ptr, ptr, ptr, ptr, i16, ptr, ptr, ptr, ptr, ptr, ptr, ptr, i16, ptr, ptr, ptr, ptr, i16, ptr, ptr, ptr, i64, ptr, ptr, ptr, ptr, i16, ptr, ptr, i16, i32, ptr, i32, ptr, i32, i32, ptr, ptr, i64, i64, ptr, i16, i16, ptr, i32, i32, ptr, i32, ptr, i32, i16, i16, i16, ptr, i16, i16, ptr, ptr, i32, i16, i16, ptr, i32, i16, ptr, ptr, ptr, ptr, i16, ptr, ptr, ptr, ptr, i32, ptr, ptr, ptr, ptr, i16, i16, ptr, i32, i32, i32, i16, i16, ptr, ptr, i16, ptr, ptr, i32, i32, i32, i32, i32, i64, i32, i32, i16, ptr, ptr, i32, ptr, ptr, ptr, i16, i32, ptr, ptr, i16, ptr, ptr, i32, i16, ptr, ptr, ptr, ptr, i32, i32, i16, i16, i32, ptr, i16, ptr, i32, i32, i32, i32, i32, i32, ptr, i16, ptr, ptr, i32, i16, ptr, i32, i16, i16, ptr, ptr, ptr, i16, ptr, ptr, ptr, ptr, i16, i16, ptr, i16, ptr, i16, ptr, i16, ptr, i16, ptr, ptr, ptr, ptr, i16, ptr, ptr, ptr, i32, ptr, i32, ptr, ptr, i16, ptr, ptr, i32, i16, ptr, ptr, i16, i16, ptr, i16, ptr, ptr, ptr, i32, ptr, i16, i16, ptr, ptr, ptr, ptr, ptr, ptr, ptr, ptr, i16, i32, i16, ptr, ptr, ptr, ptr, i32, ptr, ptr, ptr, i16, ptr, ptr, ptr, i16, ptr, i16, ptr, i16, i16, ptr }
%struct.job_record = type { i32, ptr, ptr, ptr, ptr, i16, i32, i32, i32, ptr, i32, ptr, ptr, i16, ptr, double, i64, ptr, ptr, ptr, ptr, ptr, ptr, i32, ptr, i32, i64, i64, i32, i32, ptr, i16, i64, i64, i8, i32, ptr, ptr, ptr, ptr, ptr, ptr, ptr, ptr, i32, ptr, ptr, i32, ptr, i32, ptr, i32, ptr, i32, ptr, ptr, ptr, ptr, ptr, ptr, i32, i16, i64, ptr, ptr, ptr, ptr, %struct.acct_policy_limit_set_t, i16, ptr, ptr, ptr, ptr, ptr, i32, ptr, ptr, ptr, ptr, ptr, i32, i32, ptr, ptr, ptr, i16, ptr, ptr, i8, ptr, ptr, i64, i64, i8, i32, i32, i8, i32, ptr, i32, i64, i32, ptr, ptr, ptr, i8, i16, i64, i32, ptr, ptr, ptr, ptr, ptr, i16, i32, ptr, ptr, ptr, ptr, i32, ptr, i32, i16, i64, ptr, i32, i32, ptr, i64, ptr, ptr, i64, i32, i32, i64, i32, i32, ptr, ptr, ptr, ptr, ptr, ptr, ptr, ptr, ptr, ptr, ptr, ptr, i32, ptr, i16, i16, i16, i16, ptr, i32, i32, i8, i64 }
%struct.acct_policy_limit_set_t = type { i16, i16, ptr }
%struct.slurm_step_id_msg = type { i64, i32, i32, i32 }
%struct.agent_arg_t = type { i32, i16, i32, i8, ptr, ptr, i16, i32, ptr, i16 }
%struct.stepmgr_ops_t = type { ptr, ptr, ptr, ptr, ptr, ptr, ptr, ptr, ptr, ptr }
%struct.srun_node_fail_args_t = type { i32, ptr }
%struct.node_record = type { ptr, ptr, i16, i64, i64, ptr, ptr, ptr, i16, ptr, i16, i16, i32, i32, i64, ptr, i16, i16, ptr, ptr, ptr, ptr, ptr, i64, i64, ptr, ptr, ptr, ptr, i32, ptr, ptr, i64, i64, i32, ptr, i64, ptr, i32, i16, ptr, ptr, i32, ptr, i32, i8, ptr, i32, i16, i16, ptr, i16, i64, i16, i64, ptr, i64, i32, i16, i64, i16, ptr, i16, i64, ptr, i64, i16, i32, i16, ptr, ptr, ptr, i16, i32, i16, i16, i32, ptr, i16, i32 }
%struct.srun_node_fail_msg = type { ptr, %struct.slurm_step_id_msg }

@.str = private unnamed_addr constant [12 x i8] c"srun_comm.c\00", align 1
@__func__.srun_node_fail = private unnamed_addr constant [15 x i8] c"srun_node_fail\00", align 1
@slurm_conf = external global %struct.slurm_conf_t, align 8
@stepmgr_ops = external global ptr, align 8
@__func__._srun_agent_launch = private unnamed_addr constant [19 x i8] c"_srun_agent_launch\00", align 1

; Function Attrs: nounwind uwtable
define internal void @_srun_agent_launch(ptr noundef %0, ptr noundef %1, i32 noundef %2, ptr noundef %3, i32 noundef %4, i16 noundef zeroext %5) #0 {
  %7 = alloca ptr, align 8
  %8 = alloca ptr, align 8
  %9 = alloca i32, align 4
  %10 = alloca ptr, align 8
  %11 = alloca i32, align 4
  %12 = alloca i16, align 2
  %13 = alloca ptr, align 8
  store ptr %0, ptr %7, align 8
  store ptr %1, ptr %8, align 8
  store i32 %2, ptr %9, align 4
  store ptr %3, ptr %10, align 8
  store i32 %4, ptr %11, align 4
  store i16 %5, ptr %12, align 2
  call void @llvm.lifetime.start.p0(i64 8, ptr %13) #6
  %14 = call ptr @slurm_xcalloc(i64 noundef 1, i64 noundef 56, i1 noundef zeroext true, i1 noundef zeroext false, ptr noundef @.str, i32 noundef 61, ptr noundef @__func__._srun_agent_launch)
  store ptr %14, ptr %13, align 8
  %15 = load ptr, ptr %13, align 8
  %16 = getelementptr inbounds nuw %struct.agent_arg_t, ptr %15, i32 0, i32 0
  store i32 1, ptr %16, align 8
  %17 = load ptr, ptr %13, align 8
  %18 = getelementptr inbounds nuw %struct.agent_arg_t, ptr %17, i32 0, i32 1
  store i16 0, ptr %18, align 4
  %19 = load ptr, ptr %7, align 8
  %20 = load ptr, ptr %13, align 8
  %21 = getelementptr inbounds nuw %struct.agent_arg_t, ptr %20, i32 0, i32 4
  store ptr %19, ptr %21, align 8
  %22 = load ptr, ptr %8, align 8
  %23 = call ptr @hostlist_create(ptr noundef %22)
  %24 = load ptr, ptr %13, align 8
  %25 = getelementptr inbounds nuw %struct.agent_arg_t, ptr %24, i32 0, i32 5
  store ptr %23, ptr %25, align 8
  %26 = load i32, ptr %9, align 4
  %27 = load ptr, ptr %13, align 8
  %28 = getelementptr inbounds nuw %struct.agent_arg_t, ptr %27, i32 0, i32 7
  store i32 %26, ptr %28, align 4
  %29 = load ptr, ptr %10, align 8
  %30 = load ptr, ptr %13, align 8
  %31 = getelementptr inbounds nuw %struct.agent_arg_t, ptr %30, i32 0, i32 8
  store ptr %29, ptr %31, align 8
  %32 = load ptr, ptr %13, align 8
  %33 = load i32, ptr %11, align 4
  call void @set_agent_arg_r_uid(ptr noundef %32, i32 noundef %33)
  %34 = load i16, ptr %12, align 2
  %35 = zext i16 %34 to i32
  %36 = icmp slt i32 11008, %35
  br i1 %36, label %37, label %38

37:                                               ; preds = %6
  br label %41

38:                                               ; preds = %6
  %39 = load i16, ptr %12, align 2
  %40 = zext i16 %39 to i32
  br label %41

41:                                               ; preds = %38, %37
  %42 = phi i32 [ 11008, %37 ], [ %40, %38 ]
  %43 = trunc i32 %42 to i16
  %44 = load ptr, ptr %13, align 8
  %45 = getelementptr inbounds nuw %struct.agent_arg_t, ptr %44, i32 0, i32 6
  store i16 %43, ptr %45, align 8
  %46 = load ptr, ptr @stepmgr_ops, align 8
  %47 = getelementptr inbounds nuw %struct.stepmgr_ops_t, ptr %46, i32 0, i32 8
  %48 = load ptr, ptr %47, align 8
  %49 = load ptr, ptr %13, align 8
  call void %48(ptr noundef %49)
  call void @llvm.lifetime.end.p0(i64 8, ptr %13) #6
  ret void
}

; Function Attrs: nounwind uwtable
define dso_local void @srun_node_fail(ptr noundef %0, ptr noundef %1) #0 {
  %3 = alloca ptr, align 8
  %4 = alloca ptr, align 8
  %5 = alloca ptr, align 8
  %6 = alloca i8, align 1
  %7 = alloca %struct.srun_node_fail_args_t, align 8
  %8 = alloca i32, align 4
  %9 = alloca ptr, align 8
  %10 = alloca ptr, align 8
  %11 = alloca ptr, align 8
  store ptr %0, ptr %3, align 8
  store ptr %1, ptr %4, align 8
  call void @llvm.lifetime.start.p0(i64 8, ptr %5) #6
  call void @llvm.lifetime.start.p0(i64 1, ptr %6) #6
  store i8 1, ptr %6, align 1
  call void @llvm.lifetime.start.p0(i64 16, ptr %7) #6
  %12 = getelementptr inbounds nuw %struct.srun_node_fail_args_t, ptr %7, i32 0, i32 0
  store i32 -1, ptr %12, align 8
  %13 = getelementptr i8, ptr %7, i64 4
  call void @llvm.memset.p0.i64(ptr align 4 %13, i8 0, i64 4, i1 false)
  %14 = getelementptr inbounds nuw %struct.srun_node_fail_args_t, ptr %7, i32 0, i32 1
  %15 = load ptr, ptr %4, align 8
  store ptr %15, ptr %14, align 8
  %16 = load ptr, ptr %3, align 8
  %17 = icmp ne ptr %16, null
  br i1 %17, label %18, label %24

18:                                               ; preds = %2
  %19 = load ptr, ptr %3, align 8
  %20 = getelementptr inbounds nuw %struct.job_record, ptr %19, i32 0, i32 60
  %21 = load i32, ptr %20, align 8
  %22 = and i32 %21, 255
  %23 = icmp eq i32 %22, 1
  br i1 %23, label %25, label %24

24:                                               ; preds = %18, %2
  store i32 1, ptr %8, align 4
  br label %137

25:                                               ; preds = %18
  %26 = load ptr, ptr %4, align 8
  %27 = icmp ne ptr %26, null
  br i1 %27, label %28, label %32

28:                                               ; preds = %25
  %29 = load ptr, ptr %4, align 8
  %30 = call ptr @find_node_record(ptr noundef %29)
  store ptr %30, ptr %5, align 8
  %31 = icmp eq ptr %30, null
  br i1 %31, label %32, label %33

32:                                               ; preds = %28, %25
  store i32 1, ptr %8, align 4
  br label %137

33:                                               ; preds = %28
  %34 = load ptr, ptr %5, align 8
  %35 = getelementptr inbounds nuw %struct.node_record, ptr %34, i32 0, i32 29
  %36 = load i32, ptr %35, align 8
  %37 = getelementptr inbounds nuw %struct.srun_node_fail_args_t, ptr %7, i32 0, i32 0
  store i32 %36, ptr %37, align 8
  %38 = load ptr, ptr %3, align 8
  %39 = getelementptr inbounds nuw %struct.job_record, ptr %38, i32 0, i32 128
  %40 = load ptr, ptr %39, align 8
  %41 = call i32 @list_for_each(ptr noundef %40, ptr noundef @_srun_node_fail, ptr noundef %7)
  %42 = call zeroext i1 @running_in_slurmctld()
  br i1 %42, label %43, label %80

43:                                               ; preds = %33
  %44 = load ptr, ptr %3, align 8
  %45 = getelementptr inbounds nuw %struct.job_record, ptr %44, i32 0, i32 14
  %46 = load ptr, ptr %45, align 8
  %47 = icmp ne ptr %46, null
  br i1 %47, label %48, label %80

48:                                               ; preds = %43
  %49 = load ptr, ptr %3, align 8
  %50 = getelementptr inbounds nuw %struct.job_record, ptr %49, i32 0, i32 16
  %51 = load i64, ptr %50, align 8
  %52 = and i64 %51, 2199023255552
  %53 = icmp ne i64 %52, 0
  br i1 %53, label %54, label %80

54:                                               ; preds = %48
  call void @llvm.lifetime.start.p0(i64 8, ptr %9) #6
  %55 = call ptr @slurm_xcalloc(i64 noundef 1, i64 noundef 32, i1 noundef zeroext true, i1 noundef zeroext false, ptr noundef @.str, i32 noundef 190, ptr noundef @__func__.srun_node_fail)
  store ptr %55, ptr %9, align 8
  %56 = load ptr, ptr %3, align 8
  %57 = getelementptr inbounds nuw %struct.job_record, ptr %56, i32 0, i32 53
  %58 = load i32, ptr %57, align 8
  %59 = load ptr, ptr %9, align 8
  %60 = getelementptr inbounds nuw %struct.srun_node_fail_msg, ptr %59, i32 0, i32 1
  %61 = getelementptr inbounds nuw %struct.slurm_step_id_msg, ptr %60, i32 0, i32 1
  store i32 %58, ptr %61, align 8
  %62 = load ptr, ptr %9, align 8
  %63 = getelementptr inbounds nuw %struct.srun_node_fail_msg, ptr %62, i32 0, i32 1
  %64 = getelementptr inbounds nuw %struct.slurm_step_id_msg, ptr %63, i32 0, i32 3
  store i32 -2, ptr %64, align 8
  %65 = load ptr, ptr %9, align 8
  %66 = getelementptr inbounds nuw %struct.srun_node_fail_msg, ptr %65, i32 0, i32 1
  %67 = getelementptr inbounds nuw %struct.slurm_step_id_msg, ptr %66, i32 0, i32 2
  store i32 -2, ptr %67, align 4
  %68 = load ptr, ptr %4, align 8
  %69 = call ptr @xstrdup(ptr noundef %68)
  %70 = load ptr, ptr %9, align 8
  %71 = getelementptr inbounds nuw %struct.srun_node_fail_msg, ptr %70, i32 0, i32 0
  store ptr %69, ptr %71, align 8
  %72 = load ptr, ptr %3, align 8
  %73 = getelementptr inbounds nuw %struct.job_record, ptr %72, i32 0, i32 14
  %74 = load ptr, ptr %73, align 8
  %75 = load ptr, ptr %9, align 8
  %76 = load i32, ptr getelementptr inbounds nuw (%struct.slurm_conf_t, ptr @slurm_conf, i32 0, i32 175), align 8
  %77 = load ptr, ptr %3, align 8
  %78 = getelementptr inbounds nuw %struct.job_record, ptr %77, i32 0, i32 123
  %79 = load i16, ptr %78, align 4
  call void @_srun_agent_launch(ptr noundef null, ptr noundef %74, i32 noundef 7003, ptr noundef %75, i32 noundef %76, i16 noundef zeroext %79)
  store i8 0, ptr %6, align 1
  call void @llvm.lifetime.end.p0(i64 8, ptr %9) #6
  br label %80

80:                                               ; preds = %54, %48, %43, %33
  %81 = load i8, ptr %6, align 1, !range !8, !noundef !9
  %82 = trunc i8 %81 to i1
  br i1 %82, label %83, label %136

83:                                               ; preds = %80
  %84 = load ptr, ptr %3, align 8
  %85 = getelementptr inbounds nuw %struct.job_record, ptr %84, i32 0, i32 85
  %86 = load i16, ptr %85, align 8
  %87 = zext i16 %86 to i32
  %88 = icmp ne i32 %87, 0
  br i1 %88, label %89, label %136

89:                                               ; preds = %83
  %90 = load ptr, ptr %3, align 8
  %91 = getelementptr inbounds nuw %struct.job_record, ptr %90, i32 0, i32 4
  %92 = load ptr, ptr %91, align 8
  %93 = icmp ne ptr %92, null
  br i1 %93, label %94, label %136

94:                                               ; preds = %89
  %95 = load ptr, ptr %3, align 8
  %96 = getelementptr inbounds nuw %struct.job_record, ptr %95, i32 0, i32 116
  %97 = load ptr, ptr %96, align 8
  %98 = icmp ne ptr %97, null
  br i1 %98, label %99, label %136

99:                                               ; preds = %94
  call void @llvm.lifetime.start.p0(i64 8, ptr %10) #6
  call void @llvm.lifetime.start.p0(i64 8, ptr %11) #6
  %100 = call ptr @slurm_xcalloc(i64 noundef 1, i64 noundef 128, i1 noundef zeroext true, i1 noundef zeroext false, ptr noundef @.str, i32 noundef 209, ptr noundef @__func__.srun_node_fail)
  store ptr %100, ptr %11, align 8
  %101 = load ptr, ptr %11, align 8
  %102 = load ptr, ptr %3, align 8
  %103 = getelementptr inbounds nuw %struct.job_record, ptr %102, i32 0, i32 85
  %104 = load i16, ptr %103, align 8
  %105 = load ptr, ptr %3, align 8
  %106 = getelementptr inbounds nuw %struct.job_record, ptr %105, i32 0, i32 116
  %107 = load ptr, ptr %106, align 8
  call void @slurm_set_addr(ptr noundef %101, i16 noundef zeroext %104, ptr noundef %107)
  %108 = call ptr @slurm_xcalloc(i64 noundef 1, i64 noundef 32, i1 noundef zeroext true, i1 noundef zeroext false, ptr noundef @.str, i32 noundef 211, ptr noundef @__func__.srun_node_fail)
  store ptr %108, ptr %10, align 8
  %109 = load ptr, ptr %3, align 8
  %110 = getelementptr inbounds nuw %struct.job_record, ptr %109, i32 0, i32 53
  %111 = load i32, ptr %110, align 8
  %112 = load ptr, ptr %10, align 8
  %113 = getelementptr inbounds nuw %struct.srun_node_fail_msg, ptr %112, i32 0, i32 1
  %114 = getelementptr inbounds nuw %struct.slurm_step_id_msg, ptr %113, i32 0, i32 1
  store i32 %111, ptr %114, align 8
  %115 = load ptr, ptr %10, align 8
  %116 = getelementptr inbounds nuw %struct.srun_node_fail_msg, ptr %115, i32 0, i32 1
  %117 = getelementptr inbounds nuw %struct.slurm_step_id_msg, ptr %116, i32 0, i32 3
  store i32 -2, ptr %117, align 8
  %118 = load ptr, ptr %10, align 8
  %119 = getelementptr inbounds nuw %struct.srun_node_fail_msg, ptr %118, i32 0, i32 1
  %120 = getelementptr inbounds nuw %struct.slurm_step_id_msg, ptr %119, i32 0, i32 2
  store i32 -2, ptr %120, align 4
  %121 = load ptr, ptr %4, align 8
  %122 = call ptr @xstrdup(ptr noundef %121)
  %123 = load ptr, ptr %10, align 8
  %124 = getelementptr inbounds nuw %struct.srun_node_fail_msg, ptr %123, i32 0, i32 0
  store ptr %122, ptr %124, align 8
  %125 = load ptr, ptr %11, align 8
  %126 = load ptr, ptr %3, align 8
  %127 = getelementptr inbounds nuw %struct.job_record, ptr %126, i32 0, i32 4
  %128 = load ptr, ptr %127, align 8
  %129 = load ptr, ptr %10, align 8
  %130 = load ptr, ptr %3, align 8
  %131 = getelementptr inbounds nuw %struct.job_record, ptr %130, i32 0, i32 150
  %132 = load i32, ptr %131, align 8
  %133 = load ptr, ptr %3, align 8
  %134 = getelementptr inbounds nuw %struct.job_record, ptr %133, i32 0, i32 123
  %135 = load i16, ptr %134, align 4
  call void @_srun_agent_launch(ptr noundef %125, ptr noundef %128, i32 noundef 7003, ptr noundef %129, i32 noundef %132, i16 noundef zeroext %135)
  call void @llvm.lifetime.end.p0(i64 8, ptr %11) #6
  call void @llvm.lifetime.end.p0(i64 8, ptr %10) #6
  br label %136

136:                                              ; preds = %99, %94, %89, %83, %80
  store i32 0, ptr %8, align 4
  br label %137

137:                                              ; preds = %136, %32, %24
  call void @llvm.lifetime.end.p0(i64 16, ptr %7) #6
  call void @llvm.lifetime.end.p0(i64 1, ptr %6) #6
  call void @llvm.lifetime.end.p0(i64 8, ptr %5) #6
  %138 = load i32, ptr %8, align 4
  switch i32 %138, label %140 [
    i32 0, label %139
    i32 1, label %139
  ]

139:                                              ; preds = %137, %137
  ret void

140:                                              ; preds = %137
  unreachable
}