; Function Attrs: nounwind uwtable
define dso_local void @srun_node_fail(ptr noundef readonly captures(address_is_null) %0, ptr noundef %1) local_unnamed_addr #0 {
  %3 = alloca %struct.srun_node_fail_args_t, align 8
  call void @llvm.lifetime.start.p0(i64 16, ptr nonnull %3) #6
  %4 = getelementptr inbounds nuw i8, ptr %3, i64 4
  store i32 0, ptr %4, align 4
  %5 = getelementptr inbounds nuw i8, ptr %3, i64 8
  store ptr %1, ptr %5, align 8
  %.not = icmp eq ptr %0, null
  br i1 %.not, label %70, label %6

6:                                                ; preds = %2
  %7 = getelementptr inbounds nuw i8, ptr %0, i64 448
  %8 = load i32, ptr %7, align 8
  %9 = and i32 %8, 255
  %10 = icmp ne i32 %9, 1
  %.not38 = icmp eq ptr %1, null
  %or.cond = or i1 %.not38, %10
  br i1 %or.cond, label %70, label %11

11:                                               ; preds = %6
  %12 = tail call ptr @find_node_record(ptr noundef nonnull %1) #6
  %13 = icmp eq ptr %12, null
  br i1 %13, label %70, label %14

14:                                               ; preds = %11
  %15 = getelementptr inbounds nuw i8, ptr %12, i64 208
  %16 = load i32, ptr %15, align 8
  store i32 %16, ptr %3, align 8
  %17 = getelementptr inbounds nuw i8, ptr %0, i64 936
  %18 = load ptr, ptr %17, align 8
  %19 = call i32 @list_for_each(ptr noundef %18, ptr noundef nonnull @_srun_node_fail, ptr noundef nonnull %3) #6
  %20 = call zeroext i1 @running_in_slurmctld() #6
  br i1 %20, label %21, label %35

21:                                               ; preds = %14
  %22 = getelementptr inbounds nuw i8, ptr %0, i64 96
  %23 = load ptr, ptr %22, align 8
  %.not39 = icmp eq ptr %23, null
  br i1 %.not39, label %35, label %24

24:                                               ; preds = %21
  %25 = getelementptr inbounds nuw i8, ptr %0, i64 112
  %26 = load i64, ptr %25, align 8
  %27 = and i64 %26, 2199023255552
  %.not40 = icmp eq i64 %27, 0
  br i1 %.not40, label %35, label %.critedge

.critedge:                                        ; preds = %24
  %28 = call ptr @slurm_xcalloc(i64 noundef 1, i64 noundef 32, i1 noundef zeroext true, i1 noundef zeroext false, ptr noundef nonnull @.str, i32 noundef 190, ptr noundef nonnull @__func__.srun_node_fail) #6
  %29 = getelementptr inbounds nuw i8, ptr %0, i64 392
  %30 = load i32, ptr %29, align 8
  %31 = getelementptr inbounds nuw i8, ptr %28, i64 16
  store i32 %30, ptr %31, align 8
  %32 = getelementptr inbounds nuw i8, ptr %28, i64 24
  store i32 -2, ptr %32, align 8
  %33 = getelementptr inbounds nuw i8, ptr %28, i64 20
  store i32 -2, ptr %33, align 4
  %34 = call ptr @xstrdup(ptr noundef nonnull %1) #6
  store ptr %34, ptr %28, align 8
  br label %.sink.split

35:                                               ; preds = %14, %21, %24
  %36 = getelementptr inbounds nuw i8, ptr %0, i64 640
  %37 = load i16, ptr %36, align 8
  %.not41 = icmp eq i16 %37, 0
  br i1 %.not41, label %70, label %38

38:                                               ; preds = %35
  %39 = getelementptr inbounds nuw i8, ptr %0, i64 32
  %40 = load ptr, ptr %39, align 8
  %.not42 = icmp eq ptr %40, null
  br i1 %.not42, label %70, label %41

41:                                               ; preds = %38
  %42 = getelementptr inbounds nuw i8, ptr %0, i64 856
  %43 = load ptr, ptr %42, align 8
  %.not43 = icmp eq ptr %43, null
  br i1 %.not43, label %70, label %44

44:                                               ; preds = %41
  %45 = call ptr @slurm_xcalloc(i64 noundef 1, i64 noundef 128, i1 noundef zeroext true, i1 noundef zeroext false, ptr noundef nonnull @.str, i32 noundef 209, ptr noundef nonnull @__func__.srun_node_fail) #6
  %46 = load i16, ptr %36, align 8
  %47 = load ptr, ptr %42, align 8
  call void @slurm_set_addr(ptr noundef %45, i16 noundef zeroext %46, ptr noundef %47) #6
  %48 = call ptr @slurm_xcalloc(i64 noundef 1, i64 noundef 32, i1 noundef zeroext true, i1 noundef zeroext false, ptr noundef nonnull @.str, i32 noundef 211, ptr noundef nonnull @__func__.srun_node_fail) #6
  %49 = getelementptr inbounds nuw i8, ptr %0, i64 392
  %50 = load i32, ptr %49, align 8
  %51 = getelementptr inbounds nuw i8, ptr %48, i64 16
  store i32 %50, ptr %51, align 8
  %52 = getelementptr inbounds nuw i8, ptr %48, i64 24
  store i32 -2, ptr %52, align 8
  %53 = getelementptr inbounds nuw i8, ptr %48, i64 20
  store i32 -2, ptr %53, align 4
  %54 = call ptr @xstrdup(ptr noundef nonnull %1) #6
  store ptr %54, ptr %48, align 8
  %55 = getelementptr inbounds nuw i8, ptr %0, i64 1096
  br label %.sink.split

.sink.split:                                      ; preds = %.critedge, %44
  %.sink62 = phi ptr [ %45, %44 ], [ null, %.critedge ]
  %.sink61.in = phi ptr [ %39, %44 ], [ %22, %.critedge ]
  %.sink53 = phi ptr [ %48, %44 ], [ %28, %.critedge ]
  %.sink52.in = phi ptr [ %55, %44 ], [ getelementptr inbounds nuw (i8, ptr @slurm_conf, i64 1168), %.critedge ]
  %.sink52 = load i32, ptr %.sink52.in, align 8
  %.sink61 = load ptr, ptr %.sink61.in, align 8
  %56 = getelementptr inbounds nuw i8, ptr %0, i64 908
  %57 = load i16, ptr %56, align 4
  %58 = call ptr @slurm_xcalloc(i64 noundef 1, i64 noundef 56, i1 noundef zeroext true, i1 noundef zeroext false, ptr noundef nonnull @.str, i32 noundef 61, ptr noundef nonnull @__func__._srun_agent_launch) #6
  store i32 1, ptr %58, align 8
  %59 = getelementptr inbounds nuw i8, ptr %58, i64 4
  store i16 0, ptr %59, align 4
  %60 = getelementptr inbounds nuw i8, ptr %58, i64 16
  store ptr %.sink62, ptr %60, align 8
  %61 = call ptr @hostlist_create(ptr noundef %.sink61) #6
  %62 = getelementptr inbounds nuw i8, ptr %58, i64 24
  store ptr %61, ptr %62, align 8
  %63 = getelementptr inbounds nuw i8, ptr %58, i64 36
  store i32 7003, ptr %63, align 4
  %64 = getelementptr inbounds nuw i8, ptr %58, i64 40
  store ptr %.sink53, ptr %64, align 8
  call void @set_agent_arg_r_uid(ptr noundef nonnull %58, i32 noundef %.sink52) #6
  %65 = call i16 @llvm.umin.i16(i16 %57, i16 11008)
  %66 = getelementptr inbounds nuw i8, ptr %58, i64 32
  store i16 %65, ptr %66, align 8
  %67 = load ptr, ptr @stepmgr_ops, align 8
  %68 = getelementptr inbounds nuw i8, ptr %67, i64 64
  %69 = load ptr, ptr %68, align 8
  call void %69(ptr noundef nonnull %58) #6
  br label %70

70:                                               ; preds = %.sink.split, %35, %38, %41, %11, %2, %6
  call void @llvm.lifetime.end.p0(i64 16, ptr nonnull %3) #6
  ret void
}